target datalayout = "e-m:e-p270:32:32-p271:32:32-p272:64:64-i64:64-i128:128-f80:128-n8:16:32:64-S128"
target triple = "x86_64-pc-linux-gnu"

@quiet_flag = dso_local global i32 0, align 4
@.str.32 = private unnamed_addr constant [37 x i8] c"slurm_api_version: %ld, %ld.%ld.%ld\0A\00", align 1

; Function Attrs: nounwind uwtable
define internal void @_print_version() #0 {
  %1 = alloca i64, align 8
  call void @print_slurm_version()
  %2 = load i32, ptr @quiet_flag, align 4
  %3 = icmp eq i32 %2, -1
  br i1 %3, label %4, label %16

4:                                                ; preds = %0
  call void @llvm.lifetime.start.p0(i64 8, ptr %1) #12
  %5 = call i64 @slurm_api_version()
  store i64 %5, ptr %1, align 8
  %6 = load i64, ptr %1, align 8
  %7 = load i64, ptr %1, align 8
  %8 = ashr i64 %7, 16
  %9 = and i64 %8, 255
  %10 = load i64, ptr %1, align 8
  %11 = ashr i64 %10, 8
  %12 = and i64 %11, 255
  %13 = load i64, ptr %1, align 8
  %14 = and i64 %13, 255
  %15 = call i32 (ptr, ...) @printf(ptr noundef @.str.32, i64 noundef %6, i64 noundef %9, i64 noundef %12, i64 noundef %14)
  call void @llvm.lifetime.end.p0(i64 8, ptr %1) #12
  br label %16

16:                                               ; preds = %4, %0
  ret void
}